; Function Attrs: nofree norecurse nosync nounwind memory(argmem: read) uwtable
define internal i32 @pg_johab_verifystr(ptr noundef %0, i32 noundef %1) #5 {
  %3 = icmp sgt i32 %1, 0
  br i1 %3, label %.lr.ph, label %.thread

.lr.ph:                                           ; preds = %2, %.loopexit
  %.01427 = phi ptr [ %15, %.loopexit ], [ %0, %2 ]
  %.01526 = phi i32 [ %16, %.loopexit ], [ %1, %2 ]
  %4 = load i8, ptr %.01427, align 1
  %.not = icmp sgt i8 %4, -1
  br i1 %.not, label %5, label %pg_johab_mblen.exit.i

5:                                                ; preds = %.lr.ph
  %6 = icmp eq i8 %4, 0
  br i1 %6, label %.thread, label %.loopexit

pg_johab_mblen.exit.i:                            ; preds = %.lr.ph
  %cond = icmp eq i8 %4, -113
  %spec.select = select i1 %cond, i32 3, i32 2
  %7 = icmp samesign ult i32 %.01526, %spec.select
  br i1 %7, label %.thread, label %.preheader.i

.preheader.i:                                     ; preds = %pg_johab_mblen.exit.i, %9
  %.013.i = phi i32 [ %10, %9 ], [ %spec.select, %pg_johab_mblen.exit.i ]
  %.012.i = phi ptr [ %11, %9 ], [ %.01427, %pg_johab_mblen.exit.i ]
  %8 = icmp ugt i32 %.013.i, 1
  br i1 %8, label %9, label %.loopexit

9:                                                ; preds = %.preheader.i
  %10 = add nsw i32 %.013.i, -1
  %11 = getelementptr inbounds nuw i8, ptr %.012.i, i64 1
  %12 = load i8, ptr %11, align 1
  %13 = add i8 %12, 95
  %or.cond.i = icmp ult i8 %13, 94
  br i1 %or.cond.i, label %.preheader.i, label %.thread, !llvm.loop !25

.loopexit:                                        ; preds = %.preheader.i, %5
  %.013 = phi i32 [ 1, %5 ], [ %spec.select, %.preheader.i ]
  %14 = zext nneg i32 %.013 to i64
  %15 = getelementptr inbounds nuw i8, ptr %.01427, i64 %14
  %16 = sub nsw i32 %.01526, %.013
  %17 = icmp sgt i32 %16, 0
  br i1 %17, label %.lr.ph, label %.thread

.thread:                                          ; preds = %.loopexit, %5, %pg_johab_mblen.exit.i, %9, %2
  %.01425 = phi ptr [ %0, %2 ], [ %.01427, %9 ], [ %15, %.loopexit ], [ %.01427, %5 ], [ %.01427, %pg_johab_mblen.exit.i ]
  %18 = ptrtoint ptr %.01425 to i64
  %19 = ptrtoint ptr %0 to i64
  %20 = sub i64 %18, %19
  %21 = trunc i64 %20 to i32
  ret i32 %21
}